; Function Attrs: nounwind sspstrong uwtable
define dso_local i32 @gdb_breakpoint_insert(ptr noundef %0, i32 noundef %1, i64 noundef %2, i64 noundef %3) local_unnamed_addr #2 {
  %5 = tail call ptr @cpus_get_accel() #16
  %6 = getelementptr inbounds nuw i8, ptr %5, i64 232
  %7 = load ptr, ptr %6, align 8
  %.not = icmp eq ptr %7, null
  br i1 %.not, label %10, label %8

8:                                                ; preds = %4
  %9 = tail call i32 %7(ptr noundef %0, i32 noundef %1, i64 noundef %2, i64 noundef %3) #16
  br label %10

10:                                               ; preds = %4, %8
  %.0 = phi i32 [ %9, %8 ], [ -38, %4 ]
  ret i32 %.0
}